   1              		.file	"volatile_arr_test.cpp"
   2              	# GNU C++17 (Ubuntu 11.4.0-1ubuntu1~22.04) version 11.4.0 (x86_64-linux-gnu)
   3              	#	compiled by GNU C version 11.4.0, GMP version 6.2.1, MPFR version 4.1.0, MPC version 1.2.1, isl v
   4              	
   5              	# GGC heuristics: --param ggc-min-expand=100 --param ggc-min-heapsize=131072
   6              	# options passed: -mtune=generic -march=x86-64 -g -O2 -fasynchronous-unwind-tables -fstack-protecto
   7              		.text
   8              	.Ltext0:
   9              		.file 0 "/home/andrew/Documents" "volatile_arr_test.cpp"
  10              		.section	.text.startup,"ax",@progbits
  11              		.p2align 4
  12              		.globl	main
  14              	main:
  15              	.LFB1812:
  16              		.file 1 "volatile_arr_test.cpp"
   1:volatile_arr_test.cpp **** #include <iostream>
   2:volatile_arr_test.cpp **** 
   3:volatile_arr_test.cpp **** int main() {
  17              		.loc 1 3 12 view -0
  18              		.cfi_startproc
  19 0000 F30F1EFA 		endbr64	
  20 0004 4883EC18 		subq	$24, %rsp	#,
  21              		.cfi_def_cfa_offset 32
  22              	# volatile_arr_test.cpp:3: int main() {
  23              		.loc 1 3 12 is_stmt 0 view .LVU1
  24 0008 64488B04 		movq	%fs:40, %rax	# MEM[(<address-space-1> long unsigned int *)40B], tmp86
  24      25280000 
  24      00
  25 0011 48894424 		movq	%rax, 8(%rsp)	# tmp86, D.49858
  25      08
  26 0016 31C0     		xorl	%eax, %eax	# tmp86
   4:volatile_arr_test.cpp ****   volatile uint8_t arr[8];
  27              		.loc 1 4 3 is_stmt 1 view .LVU2
   5:volatile_arr_test.cpp **** 
   6:volatile_arr_test.cpp ****   for(int i=0; i<8; ++i) {
  28              		.loc 1 6 3 view .LVU3
  29              	.LVL0:
  30              	.LBB2:
  31              		.loc 1 6 17 view .LVU4
   7:volatile_arr_test.cpp ****     arr[i] = i;
  32              		.loc 1 7 5 view .LVU5
  33              	# volatile_arr_test.cpp:7:     arr[i] = i;
  34              		.loc 1 7 12 is_stmt 0 view .LVU6
  35 0018 C6042400 		movb	$0, (%rsp)	#, arr[0]
   6:volatile_arr_test.cpp ****     arr[i] = i;
  36              		.loc 1 6 3 is_stmt 1 view .LVU7
  37              	.LVL1:
   6:volatile_arr_test.cpp ****     arr[i] = i;
  38              		.loc 1 6 17 view .LVU8
  39              		.loc 1 7 5 view .LVU9
  40              	# volatile_arr_test.cpp:7:     arr[i] = i;
  41              		.loc 1 7 12 is_stmt 0 view .LVU10
  42 001c C6442401 		movb	$1, 1(%rsp)	#, arr[1]
  42      01
   6:volatile_arr_test.cpp ****     arr[i] = i;
  43              		.loc 1 6 3 is_stmt 1 view .LVU11
  44              	.LVL2:
   6:volatile_arr_test.cpp ****     arr[i] = i;
  45              		.loc 1 6 17 view .LVU12
  46              		.loc 1 7 5 view .LVU13
  47              	# volatile_arr_test.cpp:7:     arr[i] = i;
  48              		.loc 1 7 12 is_stmt 0 view .LVU14
  49 0021 C6442402 		movb	$2, 2(%rsp)	#, arr[2]
  49      02
   6:volatile_arr_test.cpp ****     arr[i] = i;
  50              		.loc 1 6 3 is_stmt 1 view .LVU15
  51              	.LVL3:
   6:volatile_arr_test.cpp ****     arr[i] = i;
  52              		.loc 1 6 17 view .LVU16
  53              		.loc 1 7 5 view .LVU17
  54              	# volatile_arr_test.cpp:7:     arr[i] = i;
  55              		.loc 1 7 12 is_stmt 0 view .LVU18
  56 0026 C6442403 		movb	$3, 3(%rsp)	#, arr[3]
  56      03
   6:volatile_arr_test.cpp ****     arr[i] = i;
  57              		.loc 1 6 3 is_stmt 1 view .LVU19
  58              	.LVL4:
   6:volatile_arr_test.cpp ****     arr[i] = i;
  59              		.loc 1 6 17 view .LVU20
  60              		.loc 1 7 5 view .LVU21
  61              	# volatile_arr_test.cpp:7:     arr[i] = i;
  62              		.loc 1 7 12 is_stmt 0 view .LVU22
  63 002b C6442404 		movb	$4, 4(%rsp)	#, arr[4]
  63      04
   6:volatile_arr_test.cpp ****     arr[i] = i;
  64              		.loc 1 6 3 is_stmt 1 view .LVU23
  65              	.LVL5:
   6:volatile_arr_test.cpp ****     arr[i] = i;
  66              		.loc 1 6 17 view .LVU24
  67              		.loc 1 7 5 view .LVU25
  68              	# volatile_arr_test.cpp:7:     arr[i] = i;
  69              		.loc 1 7 12 is_stmt 0 view .LVU26
  70 0030 C6442405 		movb	$5, 5(%rsp)	#, arr[5]
  70      05
   6:volatile_arr_test.cpp ****     arr[i] = i;
  71              		.loc 1 6 3 is_stmt 1 view .LVU27
  72              	.LVL6:
   6:volatile_arr_test.cpp ****     arr[i] = i;
  73              		.loc 1 6 17 view .LVU28
  74              		.loc 1 7 5 view .LVU29
  75              	# volatile_arr_test.cpp:7:     arr[i] = i;
  76              		.loc 1 7 12 is_stmt 0 view .LVU30
  77 0035 C6442406 		movb	$6, 6(%rsp)	#, arr[6]
  77      06
   6:volatile_arr_test.cpp ****     arr[i] = i;
  78              		.loc 1 6 3 is_stmt 1 view .LVU31
  79              	.LVL7:
   6:volatile_arr_test.cpp ****     arr[i] = i;
  80              		.loc 1 6 17 view .LVU32
  81              		.loc 1 7 5 view .LVU33
  82              	# volatile_arr_test.cpp:7:     arr[i] = i;
  83              		.loc 1 7 12 is_stmt 0 view .LVU34
  84 003a C6442407 		movb	$7, 7(%rsp)	#, arr[7]
  84      07
   6:volatile_arr_test.cpp ****     arr[i] = i;
  85              		.loc 1 6 3 is_stmt 1 view .LVU35
  86              	.LVL8:
   6:volatile_arr_test.cpp ****     arr[i] = i;
  87              		.loc 1 6 17 view .LVU36
  88              	.LBE2:
  89              	# volatile_arr_test.cpp:10: }
   8:volatile_arr_test.cpp ****   }
   9:volatile_arr_test.cpp **** 
  10:volatile_arr_test.cpp **** }
  90              		.loc 1 10 1 is_stmt 0 view .LVU37
  91 003f 488B4424 		movq	8(%rsp), %rax	# D.49858, tmp87
  91      08
  92 0044 64482B04 		subq	%fs:40, %rax	# MEM[(<address-space-1> long unsigned int *)40B], tmp87
  92      25280000 
  92      00
  93 004d 7507     		jne	.L5	#,
  94 004f 31C0     		xorl	%eax, %eax	#
  95 0051 4883C418 		addq	$24, %rsp	#,
  96              		.cfi_remember_state
  97              		.cfi_def_cfa_offset 8
  98 0055 C3       		ret	
  99              	.L5:
 100              		.cfi_restore_state
 101 0056 E8000000 		call	__stack_chk_fail@PLT	#
 101      00
 102              	.LVL9:
 103              		.cfi_endproc
 104              	.LFE1812:
 106 005b 0F1F4400 		.p2align 4
 106      00
 108              	_GLOBAL__sub_I_main:
 109              	.LFB2294:
 110              		.loc 1 10 1 is_stmt 1 view -0
 111              		.cfi_startproc
 112 0060 F30F1EFA 		endbr64	
 113              	.LBB5:
 114              	.LBI5:
 115              		.loc 1 10 1 view .LVU39
 116              	.LVL10:
 117              		.loc 1 10 1 is_stmt 0 view .LVU40
 118              	.LBE5:
 119 0064 55       		pushq	%rbp	#
 120              		.cfi_def_cfa_offset 16
 121              		.cfi_offset 6, -16
 122              	.LBB8:
 123              	.LBB6:
 124              	# /usr/include/c++/11/iostream:74:   static ios_base::Init __ioinit;
 125              		.file 2 "/usr/include/c++/11/iostream"
   1:/usr/include/c++/11/iostream **** // Standard iostream objects -*- C++ -*-
   2:/usr/include/c++/11/iostream **** 
   3:/usr/include/c++/11/iostream **** // Copyright (C) 1997-2021 Free Software Foundation, Inc.
   4:/usr/include/c++/11/iostream **** //
   5:/usr/include/c++/11/iostream **** // This file is part of the GNU ISO C++ Library.  This library is free
   6:/usr/include/c++/11/iostream **** // software; you can redistribute it and/or modify it under the
   7:/usr/include/c++/11/iostream **** // terms of the GNU General Public License as published by the
   8:/usr/include/c++/11/iostream **** // Free Software Foundation; either version 3, or (at your option)
   9:/usr/include/c++/11/iostream **** // any later version.
  10:/usr/include/c++/11/iostream **** 
  11:/usr/include/c++/11/iostream **** // This library is distributed in the hope that it will be useful,
  12:/usr/include/c++/11/iostream **** // but WITHOUT ANY WARRANTY; without even the implied warranty of
  13:/usr/include/c++/11/iostream **** // MERCHANTABILITY or FITNESS FOR A PARTICULAR PURPOSE.  See the
  14:/usr/include/c++/11/iostream **** // GNU General Public License for more details.
  15:/usr/include/c++/11/iostream **** 
  16:/usr/include/c++/11/iostream **** // Under Section 7 of GPL version 3, you are granted additional
  17:/usr/include/c++/11/iostream **** // permissions described in the GCC Runtime Library Exception, version
  18:/usr/include/c++/11/iostream **** // 3.1, as published by the Free Software Foundation.
  19:/usr/include/c++/11/iostream **** 
  20:/usr/include/c++/11/iostream **** // You should have received a copy of the GNU General Public License and
  21:/usr/include/c++/11/iostream **** // a copy of the GCC Runtime Library Exception along with this program;
  22:/usr/include/c++/11/iostream **** // see the files COPYING3 and COPYING.RUNTIME respectively.  If not, see
  23:/usr/include/c++/11/iostream **** // <http://www.gnu.org/licenses/>.
  24:/usr/include/c++/11/iostream **** 
  25:/usr/include/c++/11/iostream **** /** @file include/iostream
  26:/usr/include/c++/11/iostream ****  *  This is a Standard C++ Library header.
  27:/usr/include/c++/11/iostream ****  */
  28:/usr/include/c++/11/iostream **** 
  29:/usr/include/c++/11/iostream **** //
  30:/usr/include/c++/11/iostream **** // ISO C++ 14882: 27.3  Standard iostream objects
  31:/usr/include/c++/11/iostream **** //
  32:/usr/include/c++/11/iostream **** 
  33:/usr/include/c++/11/iostream **** #ifndef _GLIBCXX_IOSTREAM
  34:/usr/include/c++/11/iostream **** #define _GLIBCXX_IOSTREAM 1
  35:/usr/include/c++/11/iostream **** 
  36:/usr/include/c++/11/iostream **** #pragma GCC system_header
  37:/usr/include/c++/11/iostream **** 
  38:/usr/include/c++/11/iostream **** #include <bits/c++config.h>
  39:/usr/include/c++/11/iostream **** #include <ostream>
  40:/usr/include/c++/11/iostream **** #include <istream>
  41:/usr/include/c++/11/iostream **** 
  42:/usr/include/c++/11/iostream **** namespace std _GLIBCXX_VISIBILITY(default)
  43:/usr/include/c++/11/iostream **** {
  44:/usr/include/c++/11/iostream **** _GLIBCXX_BEGIN_NAMESPACE_VERSION
  45:/usr/include/c++/11/iostream **** 
  46:/usr/include/c++/11/iostream ****   /**
  47:/usr/include/c++/11/iostream ****    *  @name Standard Stream Objects
  48:/usr/include/c++/11/iostream ****    *
  49:/usr/include/c++/11/iostream ****    *  The &lt;iostream&gt; header declares the eight <em>standard stream
  50:/usr/include/c++/11/iostream ****    *  objects</em>.  For other declarations, see
  51:/usr/include/c++/11/iostream ****    *  http://gcc.gnu.org/onlinedocs/libstdc++/manual/io.html
  52:/usr/include/c++/11/iostream ****    *  and the @link iosfwd I/O forward declarations @endlink
  53:/usr/include/c++/11/iostream ****    *
  54:/usr/include/c++/11/iostream ****    *  They are required by default to cooperate with the global C
  55:/usr/include/c++/11/iostream ****    *  library's @c FILE streams, and to be available during program
  56:/usr/include/c++/11/iostream ****    *  startup and termination. For more information, see the section of the
  57:/usr/include/c++/11/iostream ****    *  manual linked to above.
  58:/usr/include/c++/11/iostream ****   */
  59:/usr/include/c++/11/iostream ****   ///@{
  60:/usr/include/c++/11/iostream ****   extern istream cin;		/// Linked to standard input
  61:/usr/include/c++/11/iostream ****   extern ostream cout;		/// Linked to standard output
  62:/usr/include/c++/11/iostream ****   extern ostream cerr;		/// Linked to standard error (unbuffered)
  63:/usr/include/c++/11/iostream ****   extern ostream clog;		/// Linked to standard error (buffered)
  64:/usr/include/c++/11/iostream **** 
  65:/usr/include/c++/11/iostream **** #ifdef _GLIBCXX_USE_WCHAR_T
  66:/usr/include/c++/11/iostream ****   extern wistream wcin;		/// Linked to standard input
  67:/usr/include/c++/11/iostream ****   extern wostream wcout;	/// Linked to standard output
  68:/usr/include/c++/11/iostream ****   extern wostream wcerr;	/// Linked to standard error (unbuffered)
  69:/usr/include/c++/11/iostream ****   extern wostream wclog;	/// Linked to standard error (buffered)
  70:/usr/include/c++/11/iostream **** #endif
  71:/usr/include/c++/11/iostream ****   ///@}
  72:/usr/include/c++/11/iostream **** 
  73:/usr/include/c++/11/iostream ****   // For construction of filebuffers for cout, cin, cerr, clog et. al.
  74:/usr/include/c++/11/iostream ****   static ios_base::Init __ioinit;
 126              		.loc 2 74 25 view .LVU41
 127 0065 488D2D00 		leaq	_ZStL8__ioinit(%rip), %rbp	#, tmp82
 127      000000
 128 006c 4889EF   		movq	%rbp, %rdi	# tmp82,
 129 006f E8000000 		call	_ZNSt8ios_base4InitC1Ev@PLT	#
 129      00
 130              	.LVL11:
 131 0074 488B3D00 		movq	_ZNSt8ios_base4InitD1Ev@GOTPCREL(%rip), %rdi	#,
 131      000000
 132 007b 4889EE   		movq	%rbp, %rsi	# tmp82,
 133              	.LBE6:
 134              	.LBE8:
 135              	# volatile_arr_test.cpp:10: }
 136              		.loc 1 10 1 view .LVU42
 137 007e 5D       		popq	%rbp	#
 138              		.cfi_def_cfa_offset 8
 139              	.LBB9:
 140              	.LBB7:
 141              	# /usr/include/c++/11/iostream:74:   static ios_base::Init __ioinit;
 142              		.loc 2 74 25 view .LVU43
 143 007f 488D1500 		leaq	__dso_handle(%rip), %rdx	#, tmp83
 143      000000
 144 0086 E9000000 		jmp	__cxa_atexit@PLT	#
 144      00
 145              	.LVL12:
 146              	.LBE7:
 147              	.LBE9:
 148              		.cfi_endproc
 149              	.LFE2294:
 151              		.section	.init_array,"aw"
 152              		.align 8
 153 0000 00000000 		.quad	_GLOBAL__sub_I_main
 153      00000000 
 154              		.local	_ZStL8__ioinit
 155              		.comm	_ZStL8__ioinit,1,1
 156              		.text
 157              	.Letext0:
 158              		.file 3 "<built-in>"
 159              		.file 4 "/usr/lib/gcc/x86_64-linux-gnu/11/include/stddef.h"
 160              		.file 5 "/usr/include/x86_64-linux-gnu/bits/types/wint_t.h"
 161              		.file 6 "/usr/include/x86_64-linux-gnu/bits/types/__mbstate_t.h"
 162              		.file 7 "/usr/include/x86_64-linux-gnu/bits/types/mbstate_t.h"
 163              		.file 8 "/usr/include/x86_64-linux-gnu/bits/types/__FILE.h"
 164              		.file 9 "/usr/include/x86_64-linux-gnu/bits/types/struct_FILE.h"
 165              		.file 10 "/usr/include/x86_64-linux-gnu/bits/types/FILE.h"
 166              		.file 11 "/usr/include/c++/11/cwchar"
 167              		.file 12 "/usr/include/c++/11/type_traits"
 168              		.file 13 "/usr/include/c++/11/bits/exception_ptr.h"
 169              		.file 14 "/usr/include/x86_64-linux-gnu/c++/11/bits/c++config.h"
 170              		.file 15 "/usr/include/c++/11/debug/debug.h"
 171              		.file 16 "/usr/include/c++/11/cstdint"
 172              		.file 17 "/usr/include/c++/11/clocale"
 173              		.file 18 "/usr/include/c++/11/cstdlib"
 174              		.file 19 "/usr/include/c++/11/cstdio"
 175              		.file 20 "/usr/include/c++/11/bits/ios_base.h"
 176              		.file 21 "/usr/include/c++/11/cwctype"
 177              		.file 22 "/usr/include/wchar.h"
 178              		.file 23 "/usr/include/x86_64-linux-gnu/bits/wchar2.h"
 179              		.file 24 "/usr/include/x86_64-linux-gnu/bits/types/struct_tm.h"
 180              		.file 25 "/usr/include/c++/11/bits/predefined_ops.h"
 181              		.file 26 "/usr/include/x86_64-linux-gnu/bits/types.h"
 182              		.file 27 "/usr/include/x86_64-linux-gnu/bits/stdint-intn.h"
 183              		.file 28 "/usr/include/x86_64-linux-gnu/bits/stdint-uintn.h"
 184              		.file 29 "/usr/include/stdint.h"
 185              		.file 30 "/usr/include/locale.h"
 186              		.file 31 "/usr/include/stdlib.h"
 187              		.file 32 "/usr/include/x86_64-linux-gnu/bits/stdlib-float.h"
 188              		.file 33 "/usr/include/x86_64-linux-gnu/bits/stdlib-bsearch.h"
 189              		.file 34 "/usr/include/x86_64-linux-gnu/bits/stdlib.h"
 190              		.file 35 "/usr/include/x86_64-linux-gnu/bits/types/__fpos_t.h"
 191              		.file 36 "/usr/include/stdio.h"
 192              		.file 37 "/usr/include/x86_64-linux-gnu/bits/stdio2.h"
 193              		.file 38 "/usr/include/x86_64-linux-gnu/bits/stdio.h"
 194              		.file 39 "/usr/include/x86_64-linux-gnu/bits/wctype-wchar.h"
 195              		.file 40 "/usr/include/wctype.h"
 196              		.file 41 "/usr/include/c++/11/system_error"
 6461              		.section	.note.gnu.property,"a"
 6462              		.align 8
 6463 0000 04000000 		.long	1f - 0f
 6464 0004 10000000 		.long	4f - 1f
 6465 0008 05000000 		.long	5
 6466              	0:
 6467 000c 474E5500 		.string	"GNU"
 6468              	1:
 6469              		.align 8
 6470 0010 020000C0 		.long	0xc0000002
 6471 0014 04000000 		.long	3f - 2f
 6472              	2:
 6473 0018 03000000 		.long	0x3
 6474              	3:
 6475 001c 00000000 		.align 8
 6476              	4:
